ccollections
OrderedDict
p0
((lp1
(lp2
S'0|4|2'
p3
aI35
aa(lp4
S'1|2|2'
p5
aI27
aa(lp6
S'2|7|2'
p7
aI36
aa(lp8
S'3|6|2'
p9
aI32
aa(lp10
S'4|0|2'
p11
aI18
aa(lp12
S'5|8|2'
p13
aI22
aa(lp14
S'6|1|2'
p15
aI29
aa(lp16
S'7|13|2'
p17
aI26
aa(lp18
S'8|3|2'
p19
aI27
aa(lp20
S'9|2|2'
p21
aI195
aa(lp22
S'10|2|2'
p23
aI182
aa(lp24
S'11|2|2'
p25
aI187
aa(lp26
S'12|2|2'
p27
aI191
aa(lp28
S'13|0|2'
p29
aI18
aa(lp30
S'14|1|2'
p31
aI183
aa(lp32
S'15|2|2'
p33
aI204
aa(lp34
S'16|1|2'
p35
aI175
aa(lp36
S'17|2|2'
p37
aI196
aa(lp38
S'0|2|2'
p39
aI24
aa(lp40
S'1|7|2'
p41
aI31
aa(lp42
S'2|6|2'
p43
aI24
aa(lp44
S'3|0|2'
p45
aI18
aa(lp46
S'4|8|2'
p47
aI21
aa(lp48
S'5|1|2'
p49
aI25
aa(lp50
S'6|13|2'
p51
aI20
aa(lp52
S'7|3|2'
p53
aI28
aa(lp54
S'12|0|2'
p55
aI18
aa(lp56
S'13|1|2'
p57
aI183
aa(lp58
S'14|2|2'
p59
aI190
aa(lp60
S'15|1|2'
p61
aI166
aa(lp62
S'16|2|2'
p63
aI195
aa(lp64
S'0|7|2'
p65
aI26
aa(lp66
S'1|6|2'
p67
aI27
aa(lp68
S'2|0|2'
p69
aI19
aa(lp70
S'3|8|2'
p71
aI26
aa(lp72
S'4|1|2'
p73
aI28
aa(lp74
S'5|13|2'
p75
aI27
aa(lp76
S'6|3|2'
p77
aI32
aa(lp78
S'8|2|2'
p79
aI29
aa(lp80
S'11|0|2'
p81
aI19
aa(lp82
S'12|1|2'
p83
aI178
aa(lp84
S'13|2|2'
p85
aI186
aa(lp86
S'0|6|2'
p87
aI34
aa(lp88
S'1|0|2'
p89
aI26
aa(lp90
S'2|8|2'
p91
aI25
aa(lp92
S'3|1|2'
p93
aI22
aa(lp94
S'4|13|2'
p95
aI25
aa(lp96
S'5|3|2'
p97
aI27
aa(lp98
S'7|2|2'
p99
aI27
aa(lp100
S'8|14|2'
p101
aI32
aa(lp102
S'10|0|2'
p103
aI26
aa(lp104
S'11|1|2'
p105
aI181
aa(lp106
S'17|1|2'
p107
aI170
aa(lp108
S'0|0|2'
p109
aI17
aa(lp110
S'1|8|2'
p111
aI25
aa(lp112
S'2|1|2'
p113
aI19
aa(lp114
S'3|13|2'
p115
aI21
aa(lp116
S'4|3|2'
p117
aI32
aa(lp118
S'6|2|2'
p119
aI34
aa(lp120
S'7|14|2'
p121
aI22
aa(lp122
S'8|13|2'
p123
aI16
aa(lp124
S'9|0|2'
p125
aI17
aa(lp126
S'10|1|2'
p127
aI179
aa(lp128
S'0|8|0'
p129
aI5
aa(lp130
S'1|1|0'
p131
aI2
aa(lp132
S'2|13|0'
p133
aI4
aa(lp134
S'3|3|0'
p135
aI3
aa(lp136
S'4|3|0'
p137
aI4
aa(lp138
S'5|2|0'
p139
aI4
aa(lp140
S'6|14|0'
p141
aI4
aa(lp142
S'7|13|0'
p143
aI3
aa(lp144
S'8|9|0'
p145
aI6
aa(lp146
S'9|1|0'
p147
aI26
aa(lp148
S'10|2|0'
p149
aI20
aa(lp150
S'11|1|0'
p151
aI20
aa(lp152
S'12|2|0'
p153
aI24
aa(lp154
S'13|2|0'
p155
aI22
aa(lp156
S'14|2|0'
p157
aI22
aa(lp158
S'15|1|0'
p159
aI21
aa(lp160
S'16|1|0'
p161
aI21
aa(lp162
S'17|1|0'
p163
aI22
aa(lp164
S'0|1|1'
p165
aI18
aa(lp166
S'1|13|1'
p167
aI19
aa(lp168
S'2|3|1'
p169
aI19
aa(lp170
S'3|3|1'
p171
aI23
aa(lp172
S'4|2|1'
p173
aI24
aa(lp174
S'5|14|1'
p175
aI28
aa(lp176
S'6|13|1'
p177
aI23
aa(lp178
S'7|9|1'
p179
aI23
aa(lp180
S'8|12|1'
p181
aI35
aa(lp182
S'9|2|1'
p183
aI177
aa(lp184
S'10|1|1'
p185
aI163
aa(lp186
S'11|2|1'
p187
aI180
aa(lp188
S'12|2|1'
p189
aI169
aa(lp190
S'13|2|1'
p191
aI176
aa(lp192
S'14|1|1'
p193
aI166
aa(lp194
S'15|1|1'
p195
aI177
aa(lp196
S'16|1|1'
p197
aI168
aa(lp198
S'17|1|1'
p199
aI171
aa(lp200
S'0|13|2'
p201
aI24
aa(lp202
S'1|3|2'
p203
aI20
aa(lp204
S'2|3|2'
p205
aI26
aa(lp206
S'3|2|2'
p207
aI29
aa(lp208
S'4|14|2'
p209
aI33
aa(lp210
S'6|9|2'
p211
aI24
aa(lp212
S'7|12|2'
p213
aI29
aa(lp214
S'8|1|2'
p215
aI17
aa(lp216
S'9|1|2'
p217
aI175
aa(lp218
S'0|3|1'
p219
aI25
aa(lp220
S'1|3|1'
p221
aI28
aa(lp222
S'2|2|1'
p223
aI28
aa(lp224
S'3|14|1'
p225
aI25
aa(lp226
S'4|13|1'
p227
aI18
aa(lp228
S'5|9|1'
p229
aI23
aa(lp230
S'6|12|1'
p231
aI32
aa(lp232
S'7|1|1'
p233
aI24
aa(lp234
S'8|8|1'
p235
aI19
aa(lp236
S'10|2|1'
p237
aI183
aa(lp238
S'12|1|1'
p239
aI170
aa(lp240
S'13|1|1'
p241
aI164
aa(lp242
S'16|2|1'
p243
aI169
aa(lp244
S'0|3|2'
p245
aI23
aa(lp246
S'2|14|2'
p247
aI37
aa(lp248
S'4|9|2'
p249
aI23
aa(lp250
S'5|12|2'
p251
aI33
aa(lp252
S'7|8|2'
p253
aI29
aa(lp254
S'8|9|2'
p255
aI20
aa(lp256
S'1|14|2'
p257
aI32
aa(lp258
S'2|13|2'
p259
aI27
aa(lp260
S'3|9|2'
p261
aI25
aa(lp262
S'4|12|2'
p263
aI28
aa(lp264
S'6|8|2'
p265
aI28
aa(lp266
S'7|9|2'
p267
aI20
aa(lp268
S'0|14|2'
p269
aI24
aa(lp270
S'1|13|2'
p271
aI23
aa(lp272
S'2|9|2'
p273
aI16
aa(lp274
S'3|12|2'
p275
aI26
aa(lp276
S'8|12|2'
p277
aI24
aa(lp278
S'0|13|1'
p279
aI16
aa(lp280
S'1|9|1'
p281
aI17
aa(lp282
S'2|12|1'
p283
aI25
aa(lp284
S'3|1|1'
p285
aI25
aa(lp286
S'4|8|1'
p287
aI32
aa(lp288
S'6|14|1'
p289
aI33
aa(lp290
S'7|12|1'
p291
aI28
aa(lp292
S'8|0|1'
p293
aI16
aa(lp294
S'9|1|1'
p295
aI161
aa(lp296
S'11|1|1'
p297
aI162
aa(lp298
S'17|0|1'
p299
aI16
aa(lp300
S'0|9|1'
p301
aI30
aa(lp302
S'1|12|1'
p303
aI31
aa(lp304
S'2|1|1'
p305
aI26
aa(lp306
S'3|8|1'
p307
aI28
aa(lp308
S'4|9|1'
p309
aI21
aa(lp310
S'7|0|1'
p311
aI24
aa(lp312
S'8|11|1'
p313
aI22
aa(lp314
S'16|0|1'
p315
aI24
aa(lp316
S'0|12|1'
p317
aI23
aa(lp318
S'1|1|1'
p319
aI23
aa(lp320
S'2|8|1'
p321
aI26
aa(lp322
S'3|9|1'
p323
aI20
aa(lp324
S'4|14|1'
p325
aI25
aa(lp326
S'5|12|1'
p327
aI24
aa(lp328
S'6|0|1'
p329
aI21
aa(lp330
S'7|11|1'
p331
aI17
aa(lp332
S'8|9|1'
p333
aI21
aa(lp334
S'15|0|1'
p335
aI21
aa(lp336
S'1|8|1'
p337
aI26
aa(lp338
S'2|9|1'
p339
aI29
aa(lp340
S'4|12|1'
p341
aI30
aa(lp342
S'5|0|1'
p343
aI23
aa(lp344
S'6|11|1'
p345
aI23
aa(lp346
S'14|0|1'
p347
aI23
aa(lp348
S'0|8|2'
p349
aI29
aa(lp350
S'1|9|2'
p351
aI28
aa(lp352
S'5|11|2'
p353
aI28
aa(lp354
S'8|7|2'
p355
aI29
aa(lp356
S'1|14|1'
p357
aI26
aa(lp358
S'3|0|1'
p359
aI22
aa(lp360
S'4|11|1'
p361
aI19
aa(lp362
S'6|8|1'
p363
aI25
aa(lp364
S'7|7|1'
p365
aI24
aa(lp366
S'12|0|1'
p367
aI22
aa(lp368
S'0|14|1'
p369
aI31
aa(lp370
S'2|0|1'
p371
aI19
aa(lp372
S'3|11|1'
p373
aI21
aa(lp374
S'5|8|1'
p375
aI30
aa(lp376
S'6|7|1'
p377
aI28
aa(lp378
S'8|4|1'
p379
aI25
aa(lp380
S'11|0|1'
p381
aI19
aa(lp382
S'15|2|1'
p383
aI163
aa(lp384
S'17|2|1'
p385
aI174
aa(lp386
S'1|0|1'
p387
aI15
aa(lp388
S'2|11|1'
p389
aI25
aa(lp390
S'5|7|1'
p391
aI28
aa(lp392
S'7|4|1'
p393
aI29
aa(lp394
S'8|2|1'
p395
aI26
aa(lp396
S'10|0|1'
p397
aI15
aa(lp398
S'14|2|1'
p399
aI172
aa(lp400
S'0|0|1'
p401
aI23
aa(lp402
S'1|11|1'
p403
aI26
aa(lp404
S'4|7|1'
p405
aI26
aa(lp406
S'6|4|1'
p407
aI30
aa(lp408
S'7|2|1'
p409
aI28
aa(lp410
S'9|0|1'
p411
aI23
aa(lp412
S'0|11|0'
p413
aI4
aa(lp414
S'1|9|0'
p415
aI2
aa(lp416
S'2|8|0'
p417
aI6
aa(lp418
S'3|7|0'
p419
aI1
aa(lp420
S'4|12|0'
p421
aI2
aa(lp422
S'5|4|0'
p423
aI4
aa(lp424
S'6|2|0'
p425
aI2
aa(lp426
S'7|2|0'
p427
aI3
aa(lp428
S'8|2|0'
p429
aI4
aa(lp430
S'10|1|0'
p431
aI21
aa(lp432
S'13|1|0'
p433
aI17
aa(lp434
S'15|2|0'
p435
aI18
aa(lp436
S'16|2|0'
p437
aI21
aa(lp438
S'17|2|0'
p439
aI16
aa(lp440
S'2|7|1'
p441
aI20
aa(lp442
S'3|12|1'
p443
aI32
aa(lp444
S'4|4|1'
p445
aI36
aa(lp446
S'5|2|1'
p447
aI25
aa(lp448
S'6|2|1'
p449
aI21
aa(lp450
S'0|8|1'
p451
aI23
aa(lp452
S'1|7|1'
p453
aI26
aa(lp454
S'3|4|1'
p455
aI23
aa(lp456
S'8|10|1'
p457
aI25
aa(lp458
S'0|7|1'
p459
aI30
aa(lp460
S'2|4|1'
p461
aI38
aa(lp462
S'3|2|1'
p463
aI23
aa(lp464
S'7|10|1'
p465
aI25
aa(lp466
S'8|7|1'
p467
aI26
aa(lp468
S'0|12|2'
p469
aI34
aa(lp470
S'1|4|2'
p471
aI31
aa(lp472
S'2|2|2'
p473
aI28
aa(lp474
S'4|2|2'
p475
aI32
aa(lp476
S'6|10|2'
p477
aI27
aa(lp478
S'7|7|2'
p479
aI29
aa(lp480
S'8|4|2'
p481
aI36
aa(lp482
S'0|4|1'
p483
aI29
aa(lp484
S'1|2|1'
p485
aI27
aa(lp486
S'5|10|1'
p487
aI25
aa(lp488
S'8|3|1'
p489
aI22
aa(lp490
S'3|11|2'
p491
aI24
aa(lp492
S'4|10|2'
p493
aI25
aa(lp494
S'5|7|2'
p495
aI26
aa(lp496
S'6|4|2'
p497
aI32
aa(lp498
S'2|11|2'
p499
aI21
aa(lp500
S'3|10|2'
p501
aI25
aa(lp502
S'4|7|2'
p503
aI25
aa(lp504
S'5|4|2'
p505
aI34
aa(lp506
S'7|4|2'
p507
aI33
aa(lp508
S'1|11|2'
p509
aI21
aa(lp510
S'2|10|2'
p511
aI22
aa(lp512
S'3|7|2'
p513
aI24
aa(lp514
S'4|4|2'
p515
aI25
aa(lp516
S'0|11|2'
p517
aI29
aa(lp518
S'1|10|2'
p519
aI28
aa(lp520
S'3|4|2'
p521
aI32
aa(lp522
S'0|10|1'
p523
aI24
aa(lp524
S'5|3|1'
p525
aI21
aa(lp526
S'1|4|1'
p527
aI29
aa(lp528
S'4|3|1'
p529
aI14
aa(lp530
S'6|9|1'
p531
aI21
aa(lp532
S'2|4|2'
p533
aI24
aa(lp534
S'3|3|2'
p535
aI24
aa(lp536
S'5|9|2'
p537
aI23
aa(lp538
S'7|11|2'
p539
aI29
aa(lp540
S'8|5|2'
p541
aI29
aa(lp542
S'5|10|2'
p543
aI21
aa(lp544
S'6|11|2'
p545
aI21
aa(lp546
S'7|5|2'
p547
aI28
aa(lp548
S'6|5|2'
p549
aI24
aa(lp550
S'4|11|2'
p551
aI28
aa(lp552
S'5|5|2'
p553
aI24
aa(lp554
S'6|7|2'
p555
aI25
aa(lp556
S'8|10|2'
p557
aI21
aa(lp558
S'4|5|2'
p559
aI23
aa(lp560
S'7|10|2'
p561
aI20
aa(lp562
S'0|9|2'
p563
aI16
aa(lp564
S'3|5|2'
p565
aI28
aa(lp566
S'8|11|2'
p567
aI24
aa(lp568
S'2|5|1'
p569
aI25
aa(lp570
S'3|7|1'
p571
aI32
aa(lp572
S'4|5|1'
p573
aI31
aa(lp574
S'6|3|1'
p575
aI17
aa(lp576
S'8|5|1'
p577
aI26
aa(lp578
S'0|11|1'
p579
aI14
aa(lp580
S'1|5|1'
p581
aI28
aa(lp582
S'3|5|1'
p583
aI26
aa(lp584
S'4|10|1'
p585
aI19
aa(lp586
S'7|5|1'
p587
aI25
aa(lp588
S'0|5|1'
p589
aI28
aa(lp590
S'3|10|1'
p591
aI22
aa(lp592
S'5|11|1'
p593
aI19
aa(lp594
S'6|5|1'
p595
aI29
aa(lp596
S'1|5|2'
p597
aI22
aa(lp598
S'6|12|2'
p599
aI23
aa(lp600
S'8|8|2'
p601
aI33
aa(lp602
S'0|5|2'
p603
aI23
aa(lp604
S'0|10|2'
p605
aI19
aa(lp606
S'5|2|2'
p607
aI28
aa(lp608
S'7|14|1'
p609
aI32
aa(lp610
S'8|13|1'
p611
aI25
aa(lp612
S'2|12|2'
p613
aI33
aa(lp614
S'6|14|2'
p615
aI23
aa(lp616
S'0|2|1'
p617
aI28
aa(lp618
S'2|13|1'
p619
aI14
aa(lp620
S'2|5|2'
p621
aI30
aa(lp622
S'6|10|1'
p623
aI20
aa(lp624
S'8|6|2'
p625
aI29
aa(lp626
S'7|6|2'
p627
aI29
aa(lp628
S'5|5|1'
p629
aI28
aa(lp630
S'6|6|1'
p631
aI21
aa(lp632
S'2|10|1'
p633
aI24
aa(lp634
S'5|6|1'
p635
aI24
aa(lp636
S'1|10|1'
p637
aI18
aa(lp638
S'4|6|1'
p639
aI26
aa(lp640
S'2|6|1'
p641
aI24
aa(lp642
S'6|6|2'
p643
aI28
aa(lp644
S'7|13|1'
p645
aI16
aa(lp646
S'5|13|1'
p647
aI17
aa(lp648
S'7|6|1'
p649
aI20
aa(lp650
S'1|6|1'
p651
aI22
aa(lp652
S'5|6|2'
p653
aI26
aa(lp654
S'7|0|2'
p655
aI17
aa(lp656
S'16|0|2'
p657
aI17
aa(lp658
S'4|6|2'
p659
aI21
aa(lp660
S'6|0|2'
p661
aI17
aa(lp662
S'15|0|2'
p663
aI17
aa(lp664
S'3|6|1'
p665
aI17
aa(lp666
S'8|6|1'
p667
aI20
aa(lp668
S'8|14|1'
p669
aI24
aa(lp670
S'0|6|1'
p671
aI19
aa(lp672
S'3|13|1'
p673
aI22
aa(lp674
S'0|13|0'
p675
aI4
aa(lp676
S'2|6|0'
p677
aI5
aa(lp678
S'3|4|0'
p679
aI8
aa(lp680
S'4|14|0'
p681
aI2
aa(lp682
S'5|5|0'
p683
aI4
aa(lp684
S'6|11|0'
p685
aI4
aa(lp686
S'7|10|0'
p687
aI3
aa(lp688
S'8|14|0'
p689
aI4
aa(lp690
S'11|2|0'
p691
aI18
aa(lp692
S'2|14|1'
p693
aI19
aa(lp694
S'7|3|1'
p695
aI19
aa(lp696
S'5|14|2'
p697
aI29
aa(lp698
S'7|8|1'
p699
aI27
aa(lp700
S'5|0|2'
p701
aI14
aa(lp702
S'14|0|2'
p703
aI14
aa(lp704
S'4|0|1'
p705
aI21
aa(lp706
S'13|0|1'
p707
aI21
aa(lp708
S'0|5|0'
p709
aI5
aa(lp710
S'1|6|0'
p711
aI4
aa(lp712
S'3|8|0'
p713
aI3
aa(lp714
S'4|7|0'
p715
aI6
aa(lp716
S'5|0|0'
p717
aI4
aa(lp718
S'6|8|0'
p719
aI3
aa(lp720
S'7|5|0'
p721
aI3
aa(lp722
S'8|8|0'
p723
aI4
aa(lp724
S'9|2|0'
p725
aI14
aa(lp726
S'12|1|0'
p727
aI16
aa(lp728
S'14|0|0'
p729
aI4
aa(lp730
S'8|1|1'
p731
aI29
aa(lp732
S'7|1|2'
p733
aI21
aa(lp734
S'1|5|0'
p735
aI6
aa(lp736
S'3|14|0'
p737
aI4
aa(lp738
S'4|8|0'
p739
aI4
aa(lp740
S'5|9|0'
p741
aI1
aa(lp742
S'6|1|0'
p743
aI3
aa(lp744
S'7|11|0'
p745
aI2
aa(lp746
S'14|1|0'
p747
aI16
aa(lp748
S'5|1|1'
p749
aI21
aa(lp750
S'5|4|1'
p751
aI25
aa(lp752
S'1|1|2'
p753
aI24
aa(lp754
S'0|7|0'
p755
aI2
aa(lp756
S'1|4|0'
p757
aI3
aa(lp758
S'2|3|0'
p759
aI5
aa(lp760
S'3|1|0'
p761
aI2
aa(lp762
S'4|13|0'
p763
aI2
aa(lp764
S'5|10|0'
p765
aI2
aa(lp766
S'6|12|0'
p767
aI5
aa(lp768
S'7|9|0'
p769
aI4
aa(lp770
S'0|1|2'
p771
aI30
aa(lp772
S'1|12|2'
p773
aI22
aa(lp774
S'0|12|0'
p775
aI3
aa(lp776
S'2|7|0'
p777
aI2
aa(lp778
S'3|11|0'
p779
aI2
aa(lp780
S'5|3|0'
p781
aI2
aa(lp782
S'7|7|0'
p783
aI4
aa(lp784
S'3|14|2'
p785
aI31
aa(lp786
S'0|10|0'
p787
aI4
aa(lp788
S'1|2|0'
p789
aI3
aa(lp790
S'4|6|0'
p791
aI5
aa(lp792
S'5|7|0'
p793
aI3
aa(lp794
S'8|10|0'
p795
aI2
aa(lp796
S'0|2|0'
p797
aI5
aa(lp798
S'2|9|0'
p799
aI2
aa(lp800
S'3|2|0'
p801
aI4
aa(lp802
S'4|1|0'
p803
aI2
aa(lp804
S'5|8|0'
p805
aI5
aa(lp806
S'8|6|0'
p807
aI4
aa(lp808
S'4|1|1'
p809
aI19
aa(lp810
S'8|0|2'
p811
aI21
aa(lp812
S'17|0|2'
p813
aI21
aa(lp814
S'6|1|1'
p815
aI17
aa(lp816
S'0|14|0'
p817
aI5
aa(lp818
S'3|6|0'
p819
aI4
aa(lp820
S'6|13|0'
p821
aI2
aa(lp822
S'1|14|0'
p823
aI2
aa(lp824
S'3|13|0'
p825
aI2
aa(lp826
S'5|11|0'
p827
aI1
aa(lp828
S'1|12|0'
p829
aI7
aa(lp830
S'2|1|0'
p831
aI4
aa(lp832
S'4|10|0'
p833
aI4
aa(lp834
S'6|5|0'
p835
aI3
aa(lp836
S'7|3|0'
p837
aI3
aa(lp838
S'8|13|0'
p839
aI3
aa(lp840
S'2|12|0'
p841
aI2
aa(lp842
S'4|9|0'
p843
aI3
aa(lp844
S'5|1|0'
p845
aI3
aa(lp846
S'6|6|0'
p847
aI4
aa(lp848
S'7|1|0'
p849
aI3
aa(lp850
S'8|1|0'
p851
aI2
aa(lp852
S'5|14|0'
p853
aI3
aa(lp854
S'6|7|0'
p855
aI4
aa(lp856
S'8|11|0'
p857
aI2
aa(lp858
S'1|13|0'
p859
aI3
aa(lp860
S'2|0|0'
p861
aI4
aa(lp862
S'11|0|0'
p863
aI4
aa(lp864
S'0|1|0'
p865
aI1
aa(lp866
S'1|8|0'
p867
aI6
aa(lp868
S'8|4|0'
p869
aI2
aa(lp870
S'7|12|0'
p871
aI3
aa(lp872
S'8|7|0'
p873
aI2
aa(lp874
S'3|12|0'
p875
aI2
aa(lp876
S'7|14|0'
p877
aI6
aa(lp878
S'0|9|0'
p879
aI1
aa(lp880
S'3|0|0'
p881
aI2
aa(lp882
S'4|0|0'
p883
aI3
aa(lp884
S'5|12|0'
p885
aI3
aa(lp886
S'6|0|0'
p887
aI3
aa(lp888
S'12|0|0'
p889
aI2
aa(lp890
S'13|0|0'
p891
aI3
aa(lp892
S'15|0|0'
p893
aI3
aa(lp894
S'0|0|0'
p895
aI2
aa(lp896
S'5|6|0'
p897
aI2
aa(lp898
S'6|4|0'
p899
aI1
aa(lp900
S'7|6|0'
p901
aI4
aa(lp902
S'9|0|0'
p903
aI2
aa(lp904
S'1|0|0'
p905
aI1
aa(lp906
S'2|14|0'
p907
aI4
aa(lp908
S'10|0|0'
p909
aI1
aa(lp910
S'6|9|0'
p911
aI2
aa(lp912
S'8|0|0'
p913
aI4
aa(lp914
S'17|0|0'
p915
aI4
aa(lp916
S'2|4|0'
p917
aI1
aa(lp918
S'1|10|0'
p919
aI1
aa(lp920
S'3|5|0'
p921
aI2
aa(lp922
S'4|5|0'
p923
aI2
aa(lp924
S'6|10|0'
p925
aI1
aa(lp926
S'2|5|0'
p927
aI1
aa(lp928
S'8|3|0'
p929
aI1
aa(lp930
S'3|10|0'
p931
aI1
aa(lp932
S'1|7|0'
p933
aI1
aa(lp934
S'2|10|0'
p935
aI1
aa(lp936
S'6|3|0'
p937
aI1
aa(lp938
S'7|4|0'
p939
aI1
aa(lp940
S'0|3|0'
p941
aI1
aa(lp942
S'5|13|0'
p943
aI1
aa(lp944
S'3|9|0'
p945
aI2
aa(lp946
S'2|11|0'
p947
aI1
aa(lp948
S'4|4|0'
p949
aI2
aa(lp950
S'8|5|0'
p951
aI1
aa(lp952
S'4|2|0'
p953
aI1
aa(lp954
S'8|12|0'
p955
aI1
aa(lp956
S'1|3|0'
p957
aI1
aatp958
Rp959
.